target datalayout = "e-m:e-p270:32:32-p271:32:32-p272:64:64-i64:64-i128:128-f80:128-n8:16:32:64-S128"
target triple = "x86_64-pc-linux-gnu"

%struct.VP8Decoder = type { i32, i32, ptr, %struct.VP8BitReader, i32, %struct.VP8FrameHeader, %struct.VP8PictureHeader, %struct.VP8FilterHeader, %struct.VP8SegmentHeader, %struct.WebPWorker, i32, i32, i32, %struct.VP8ThreadContext, i32, i32, i32, i32, i32, i32, i32, [8 x %struct.VP8BitReader], i32, %struct.VP8Random, [4 x %struct.VP8QuantMatrix], %struct.VP8Proba, i32, i8, ptr, [4 x i8], ptr, ptr, ptr, ptr, ptr, ptr, ptr, i32, i32, ptr, i64, i32, i32, ptr, i32, [4 x [2 x %struct.VP8FInfo]], ptr, ptr, i64, i32, ptr, ptr, ptr, i32 }
%struct.VP8BitReader = type { i64, i32, i32, ptr, ptr, ptr, i32 }
%struct.VP8FrameHeader = type { i8, i8, i8, i32 }
%struct.VP8PictureHeader = type { i16, i16, i8, i8, i8, i8 }
%struct.VP8FilterHeader = type { i32, i32, i32, i32, [4 x i32], [4 x i32] }
%struct.VP8SegmentHeader = type { i32, i32, i32, [4 x i8], [4 x i8] }
%struct.WebPWorker = type { ptr, i32, ptr, ptr, ptr, i32 }
%struct.VP8ThreadContext = type { i32, i32, i32, ptr, ptr, %struct.VP8Io }
%struct.VP8Io = type { i32, i32, i32, i32, i32, ptr, ptr, ptr, i32, i32, ptr, ptr, ptr, ptr, i32, i64, ptr, i32, i32, i32, i32, i32, i32, i32, i32, i32, ptr }
%struct.VP8Random = type { i32, i32, [55 x i32], i32 }
%struct.VP8QuantMatrix = type { [2 x i32], [2 x i32], [2 x i32], i32, i32 }
%struct.VP8Proba = type { [3 x i8], [4 x [8 x %struct.VP8BandProbas]], [4 x [17 x ptr]] }
%struct.VP8BandProbas = type { [3 x [11 x i8]] }
%struct.VP8FInfo = type { i8, i8, i8, i8 }

; Function Attrs: nounwind uwtable
define hidden i32 @VP8SetError(ptr noundef %0, i32 noundef %1, ptr noundef %2) #0 {
  %4 = alloca ptr, align 8
  %5 = alloca i32, align 4
  %6 = alloca ptr, align 8
  store ptr %0, ptr %4, align 8, !tbaa !10
  store i32 %1, ptr %5, align 4, !tbaa !8
  store ptr %2, ptr %6, align 8, !tbaa !37
  %7 = load ptr, ptr %4, align 8, !tbaa !10
  %8 = getelementptr inbounds nuw %struct.VP8Decoder, ptr %7, i32 0, i32 0
  %9 = load i32, ptr %8, align 8, !tbaa !31
  %10 = icmp eq i32 %9, 0
  br i1 %10, label %11, label %20

11:                                               ; preds = %3
  %12 = load i32, ptr %5, align 4, !tbaa !8
  %13 = load ptr, ptr %4, align 8, !tbaa !10
  %14 = getelementptr inbounds nuw %struct.VP8Decoder, ptr %13, i32 0, i32 0
  store i32 %12, ptr %14, align 8, !tbaa !31
  %15 = load ptr, ptr %6, align 8, !tbaa !37
  %16 = load ptr, ptr %4, align 8, !tbaa !10
  %17 = getelementptr inbounds nuw %struct.VP8Decoder, ptr %16, i32 0, i32 2
  store ptr %15, ptr %17, align 8, !tbaa !32
  %18 = load ptr, ptr %4, align 8, !tbaa !10
  %19 = getelementptr inbounds nuw %struct.VP8Decoder, ptr %18, i32 0, i32 1
  store i32 0, ptr %19, align 4, !tbaa !14
  br label %20

20:                                               ; preds = %11, %3
  ret i32 0
}