; Function Attrs: mustprogress nofree norecurse nosync nounwind willreturn memory(argmem: readwrite) uwtable
define hidden noundef i32 @VP8SetError(ptr noundef captures(none) %0, i32 noundef %1, ptr noundef %2) local_unnamed_addr #7 {
  %4 = load i32, ptr %0, align 8, !tbaa !3
  %5 = icmp eq i32 %4, 0
  br i1 %5, label %6, label %9

6:                                                ; preds = %3
  store i32 %1, ptr %0, align 8, !tbaa !3
  %7 = getelementptr inbounds nuw i8, ptr %0, i64 8
  store ptr %2, ptr %7, align 8, !tbaa !23
  %8 = getelementptr inbounds nuw i8, ptr %0, i64 4
  store i32 0, ptr %8, align 4, !tbaa !26
  br label %9

9:                                                ; preds = %6, %3
  ret i32 0
}